; Function Attrs: mustprogress nofree norecurse nosync nounwind willreturn memory(read, inaccessiblemem: none) uwtable
define internal range(i32 0, 2) i32 @isSelectionEvent(ptr readnone captures(none) %0, ptr noundef readonly captures(none) %1, ptr readnone captures(none) %2) #2 {
  %4 = getelementptr inbounds nuw i8, ptr %1, i64 32
  %5 = load i64, ptr %4, align 8, !tbaa !106
  %6 = load i64, ptr getelementptr inbounds nuw (i8, ptr @_glfw, i64 137872), align 8, !tbaa !104
  %.not = icmp eq i64 %5, %6
  br i1 %.not, label %7, label %13

7:                                                ; preds = %3
  %8 = load i32, ptr %1, align 8, !tbaa !106
  %9 = and i32 %8, -2
  %switch = icmp eq i32 %9, 30
  br i1 %switch, label %13, label %10

10:                                               ; preds = %7
  %11 = icmp eq i32 %8, 29
  %12 = zext i1 %11 to i32
  br label %13

13:                                               ; preds = %7, %10, %3
  %.0 = phi i32 [ 0, %3 ], [ %12, %10 ], [ 1, %7 ]
  ret i32 %.0
}